target datalayout = "e-m:e-p270:32:32-p271:32:32-p272:64:64-i64:64-i128:128-f80:128-n8:16:32:64-S128"
target triple = "x86_64-pc-linux-gnu"

%struct.EVP_ARIA_KEY = type { %struct.aria_key_st }
%struct.aria_key_st = type { [17 x %union.ARIA_u128], i32 }
%union.ARIA_u128 = type { [4 x i32] }
%struct.evp_cipher_ctx_st = type { ptr, ptr, i32, i32, [16 x i8], [16 x i8], [32 x i8], i32, ptr, i32, i32, i64, ptr, i32, i32, [32 x i8], i64, ptr, ptr }

; Function Attrs: nounwind uwtable
define internal void @aria_ofb128_encrypt(ptr noundef %0, ptr noundef %1, i64 noundef %2, ptr noundef %3, ptr noundef %4, ptr noundef %5) #0 {
  %7 = alloca ptr, align 8
  %8 = alloca ptr, align 8
  %9 = alloca i64, align 8
  %10 = alloca ptr, align 8
  %11 = alloca ptr, align 8
  %12 = alloca ptr, align 8
  store ptr %0, ptr %7, align 8, !tbaa !8
  store ptr %1, ptr %8, align 8, !tbaa !8
  store i64 %2, ptr %9, align 8, !tbaa !12
  store ptr %3, ptr %10, align 8, !tbaa !16
  store ptr %4, ptr %11, align 8, !tbaa !8
  store ptr %5, ptr %12, align 8, !tbaa !19
  %13 = load ptr, ptr %7, align 8, !tbaa !8
  %14 = load ptr, ptr %8, align 8, !tbaa !8
  %15 = load i64, ptr %9, align 8, !tbaa !12
  %16 = load ptr, ptr %10, align 8, !tbaa !16
  %17 = load ptr, ptr %11, align 8, !tbaa !8
  %18 = load ptr, ptr %12, align 8, !tbaa !19
  call void @CRYPTO_ofb128_encrypt(ptr noundef %13, ptr noundef %14, i64 noundef %15, ptr noundef %16, ptr noundef %17, ptr noundef %18, ptr noundef @ossl_aria_encrypt)
  ret void
}

; Function Attrs: nounwind uwtable
define internal i32 @aria_128_ofb_cipher(ptr noundef %0, ptr noundef %1, ptr noundef %2, i64 noundef %3) #0 {
  %5 = alloca ptr, align 8
  %6 = alloca ptr, align 8
  %7 = alloca ptr, align 8
  %8 = alloca i64, align 8
  %9 = alloca i32, align 4
  %10 = alloca i32, align 4
  store ptr %0, ptr %5, align 8, !tbaa !3
  store ptr %1, ptr %6, align 8, !tbaa !8
  store ptr %2, ptr %7, align 8, !tbaa !8
  store i64 %3, ptr %8, align 8, !tbaa !12
  br label %11

11:                                               ; preds = %14, %4
  %12 = load i64, ptr %8, align 8, !tbaa !12
  %13 = icmp uge i64 %12, 1073741824
  br i1 %13, label %14, label %34

14:                                               ; preds = %11
  call void @llvm.lifetime.start.p0(i64 4, ptr %9) #4
  %15 = load ptr, ptr %5, align 8, !tbaa !3
  %16 = call i32 @EVP_CIPHER_CTX_get_num(ptr noundef %15)
  store i32 %16, ptr %9, align 4, !tbaa !10
  %17 = load ptr, ptr %7, align 8, !tbaa !8
  %18 = load ptr, ptr %6, align 8, !tbaa !8
  %19 = load ptr, ptr %5, align 8, !tbaa !3
  %20 = call ptr @EVP_CIPHER_CTX_get_cipher_data(ptr noundef %19)
  %21 = getelementptr inbounds nuw %struct.EVP_ARIA_KEY, ptr %20, i32 0, i32 0
  %22 = load ptr, ptr %5, align 8, !tbaa !3
  %23 = getelementptr inbounds nuw %struct.evp_cipher_ctx_st, ptr %22, i32 0, i32 5
  %24 = getelementptr inbounds [16 x i8], ptr %23, i64 0, i64 0
  call void @aria_ofb128_encrypt(ptr noundef %17, ptr noundef %18, i64 noundef 1073741824, ptr noundef %21, ptr noundef %24, ptr noundef %9)
  %25 = load ptr, ptr %5, align 8, !tbaa !3
  %26 = load i32, ptr %9, align 4, !tbaa !10
  %27 = call i32 @EVP_CIPHER_CTX_set_num(ptr noundef %25, i32 noundef %26)
  %28 = load i64, ptr %8, align 8, !tbaa !12
  %29 = sub i64 %28, 1073741824
  store i64 %29, ptr %8, align 8, !tbaa !12
  %30 = load ptr, ptr %7, align 8, !tbaa !8
  %31 = getelementptr inbounds nuw i8, ptr %30, i64 1073741824
  store ptr %31, ptr %7, align 8, !tbaa !8
  %32 = load ptr, ptr %6, align 8, !tbaa !8
  %33 = getelementptr inbounds nuw i8, ptr %32, i64 1073741824
  store ptr %33, ptr %6, align 8, !tbaa !8
  call void @llvm.lifetime.end.p0(i64 4, ptr %9) #4
  br label %11, !llvm.loop !21

34:                                               ; preds = %11
  %35 = load i64, ptr %8, align 8, !tbaa !12
  %36 = icmp ne i64 %35, 0
  br i1 %36, label %37, label %52

37:                                               ; preds = %34
  call void @llvm.lifetime.start.p0(i64 4, ptr %10) #4
  %38 = load ptr, ptr %5, align 8, !tbaa !3
  %39 = call i32 @EVP_CIPHER_CTX_get_num(ptr noundef %38)
  store i32 %39, ptr %10, align 4, !tbaa !10
  %40 = load ptr, ptr %7, align 8, !tbaa !8
  %41 = load ptr, ptr %6, align 8, !tbaa !8
  %42 = load i64, ptr %8, align 8, !tbaa !12
  %43 = load ptr, ptr %5, align 8, !tbaa !3
  %44 = call ptr @EVP_CIPHER_CTX_get_cipher_data(ptr noundef %43)
  %45 = getelementptr inbounds nuw %struct.EVP_ARIA_KEY, ptr %44, i32 0, i32 0
  %46 = load ptr, ptr %5, align 8, !tbaa !3
  %47 = getelementptr inbounds nuw %struct.evp_cipher_ctx_st, ptr %46, i32 0, i32 5
  %48 = getelementptr inbounds [16 x i8], ptr %47, i64 0, i64 0
  call void @aria_ofb128_encrypt(ptr noundef %40, ptr noundef %41, i64 noundef %42, ptr noundef %45, ptr noundef %48, ptr noundef %10)
  %49 = load ptr, ptr %5, align 8, !tbaa !3
  %50 = load i32, ptr %10, align 4, !tbaa !10
  %51 = call i32 @EVP_CIPHER_CTX_set_num(ptr noundef %49, i32 noundef %50)
  call void @llvm.lifetime.end.p0(i64 4, ptr %10) #4
  br label %52

52:                                               ; preds = %37, %34
  ret i32 1
}